; Function Attrs: mustprogress nofree norecurse nosync nounwind willreturn memory(read, inaccessiblemem: none) uwtable
define noundef zeroext i1 @_ZNK5arrow2io20TransformInputStream6closedEv(ptr nocapture noundef nonnull readonly align 8 dereferenceable(16) %this) unnamed_addr #7 align 2 {
entry:
  %impl_ = getelementptr inbounds i8, ptr %this, i64 8
  %0 = load ptr, ptr %impl_, align 8
  %closed_ = getelementptr inbounds i8, ptr %0, i64 72
  %1 = load i8, ptr %closed_, align 8
  %2 = and i8 %1, 1
  %tobool = icmp ne i8 %2, 0
  ret i1 %tobool
}